(lp0
V002.Laysan_Albatross/Laysan_Albatross_0002_1027
p1
aV002.Laysan_Albatross/Laysan_Albatross_0003_1033
p2
aV002.Laysan_Albatross/Laysan_Albatross_0082_524
p3
aV002.Laysan_Albatross/Laysan_Albatross_0044_784
p4
aV002.Laysan_Albatross/Laysan_Albatross_0070_788
p5
aV002.Laysan_Albatross/Laysan_Albatross_0050_870
p6
aV002.Laysan_Albatross/Laysan_Albatross_0071_792
p7
aV002.Laysan_Albatross/Laysan_Albatross_0053_543
p8
aV002.Laysan_Albatross/Laysan_Albatross_0081_800
p9
aV002.Laysan_Albatross/Laysan_Albatross_0001_545
p10
aV002.Laysan_Albatross/Laysan_Albatross_0023_1059
p11
aV002.Laysan_Albatross/Laysan_Albatross_0065_809
p12
aV002.Laysan_Albatross/Laysan_Albatross_0061_563
p13
aV002.Laysan_Albatross/Laysan_Albatross_0085_564
p14
aV002.Laysan_Albatross/Laysan_Albatross_0005_565
p15
aV002.Laysan_Albatross/Laysan_Albatross_0060_777
p16
aV002.Laysan_Albatross/Laysan_Albatross_0055_570
p17
aV002.Laysan_Albatross/Laysan_Albatross_0025_571
p18
aV002.Laysan_Albatross/Laysan_Albatross_0080_821
p19
aV002.Laysan_Albatross/Laysan_Albatross_0092_834
p20
aV002.Laysan_Albatross/Laysan_Albatross_0013_910
p21
aV002.Laysan_Albatross/Laysan_Albatross_0091_602
p22
aV002.Laysan_Albatross/Laysan_Albatross_0102_611
p23
aV002.Laysan_Albatross/Laysan_Albatross_0099_869
p24
aV002.Laysan_Albatross/Laysan_Albatross_0017_614
p25
aV002.Laysan_Albatross/Laysan_Albatross_0047_619
p26
aV002.Laysan_Albatross/Laysan_Albatross_0035_876
p27
aV002.Laysan_Albatross/Laysan_Albatross_0098_621
p28
aV002.Laysan_Albatross/Laysan_Albatross_0088_883
p29
aV002.Laysan_Albatross/Laysan_Albatross_0034_628
p30
aV002.Laysan_Albatross/Laysan_Albatross_0104_630
p31
aV002.Laysan_Albatross/Laysan_Albatross_0058_637
p32
aV002.Laysan_Albatross/Laysan_Albatross_0028_643
p33
aV002.Laysan_Albatross/Laysan_Albatross_0033_658
p34
aV002.Laysan_Albatross/Laysan_Albatross_0075_668
p35
aV002.Laysan_Albatross/Laysan_Albatross_0076_671
p36
aV002.Laysan_Albatross/Laysan_Albatross_0096_673
p37
aV002.Laysan_Albatross/Laysan_Albatross_0064_674
p38
aV002.Laysan_Albatross/Laysan_Albatross_0039_924
p39
aV002.Laysan_Albatross/Laysan_Albatross_0049_918
p40
aV002.Laysan_Albatross/Laysan_Albatross_0012_696
p41
aV002.Laysan_Albatross/Laysan_Albatross_0056_500
p42
aV002.Laysan_Albatross/Laysan_Albatross_0037_699
p43
aV002.Laysan_Albatross/Laysan_Albatross_0006_702
p44
aV002.Laysan_Albatross/Laysan_Albatross_0073_927
p45
aV002.Laysan_Albatross/Laysan_Albatross_0042_801
p46
aV002.Laysan_Albatross/Laysan_Albatross_0004_930
p47
aV002.Laysan_Albatross/Laysan_Albatross_0093_725
p48
aV002.Laysan_Albatross/Laysan_Albatross_0068_726
p49
aV002.Laysan_Albatross/Laysan_Albatross_0040_472
p50
aV002.Laysan_Albatross/Laysan_Albatross_0100_735
p51
aV002.Laysan_Albatross/Laysan_Albatross_0021_737
p52
aV002.Laysan_Albatross/Laysan_Albatross_0029_482
p53
aV002.Laysan_Albatross/Laysan_Albatross_0059_488
p54
aV002.Laysan_Albatross/Laysan_Albatross_0018_492
p55
aV002.Laysan_Albatross/Laysan_Albatross_0083_756
p56
aV002.Laysan_Albatross/Laysan_Albatross_0094_1013
p57
aV002.Laysan_Albatross/Laysan_Albatross_0103_504
p58
aV002.Laysan_Albatross/Laysan_Albatross_0079_506
p59
aV002.Laysan_Albatross/Laysan_Albatross_0051_1020
p60
aV003.Sooty_Albatross/Sooty_Albatross_0038_1065
p61
aV003.Sooty_Albatross/Sooty_Albatross_0031_1066
p62
aV003.Sooty_Albatross/Sooty_Albatross_0001_1071
p63
aV003.Sooty_Albatross/Sooty_Albatross_0016_1075
p64
aV003.Sooty_Albatross/Sooty_Albatross_0043_1076
p65
aV003.Sooty_Albatross/Sooty_Albatross_0003_1078
p66
aV003.Sooty_Albatross/Sooty_Albatross_0077_1080
p67
aV003.Sooty_Albatross/Sooty_Albatross_0063_1101
p68
aV003.Sooty_Albatross/Sooty_Albatross_0044_1105
p69
aV003.Sooty_Albatross/Sooty_Albatross_0071_1116
p70
aV003.Sooty_Albatross/Sooty_Albatross_0070_796346
p71
aV003.Sooty_Albatross/Sooty_Albatross_0030_1122
p72
aV003.Sooty_Albatross/Sooty_Albatross_0054_796347
p73
aV003.Sooty_Albatross/Sooty_Albatross_0033_1128
p74
aV003.Sooty_Albatross/Sooty_Albatross_0048_1130
p75
aV003.Sooty_Albatross/Sooty_Albatross_0032_1149
p76
aV003.Sooty_Albatross/Sooty_Albatross_0034_1154
p77
aV003.Sooty_Albatross/Sooty_Albatross_0055_1160
p78
aV003.Sooty_Albatross/Sooty_Albatross_0024_1161
p79
aV003.Sooty_Albatross/Sooty_Albatross_0045_1162
p80
aV003.Sooty_Albatross/Sooty_Albatross_0073_1171
p81
aV003.Sooty_Albatross/Sooty_Albatross_0074_1221
p82
aV003.Sooty_Albatross/Sooty_Albatross_0021_796339
p83
aV003.Sooty_Albatross/Sooty_Albatross_0005_796342
p84
aV003.Sooty_Albatross/Sooty_Albatross_0064_796343
p85
aV003.Sooty_Albatross/Sooty_Albatross_0042_1210
p86
aV003.Sooty_Albatross/Sooty_Albatross_0046_1211
p87
aV003.Sooty_Albatross/Sooty_Albatross_0017_796349
p88
aV003.Sooty_Albatross/Sooty_Albatross_0049_796350
p89
aV003.Sooty_Albatross/Sooty_Albatross_0050_796351
p90
aV003.Sooty_Albatross/Sooty_Albatross_0075_796352
p91
aV003.Sooty_Albatross/Sooty_Albatross_0068_796353
p92
aV003.Sooty_Albatross/Sooty_Albatross_0057_796354
p93
aV003.Sooty_Albatross/Sooty_Albatross_0010_796355
p94
aV003.Sooty_Albatross/Sooty_Albatross_0029_796357
p95
aV003.Sooty_Albatross/Sooty_Albatross_0069_796358
p96
aV003.Sooty_Albatross/Sooty_Albatross_0020_796359
p97
aV003.Sooty_Albatross/Sooty_Albatross_0058_796360
p98
aV003.Sooty_Albatross/Sooty_Albatross_0025_796361
p99
aV003.Sooty_Albatross/Sooty_Albatross_0041_796364
p100
aV003.Sooty_Albatross/Sooty_Albatross_0076_796365
p101
aV003.Sooty_Albatross/Sooty_Albatross_0004_796366
p102
aV003.Sooty_Albatross/Sooty_Albatross_0065_796367
p103
aV003.Sooty_Albatross/Sooty_Albatross_0072_796371
p104
aV003.Sooty_Albatross/Sooty_Albatross_0007_796372
p105
aV003.Sooty_Albatross/Sooty_Albatross_0014_796373
p106
aV003.Sooty_Albatross/Sooty_Albatross_0051_796374
p107
aV003.Sooty_Albatross/Sooty_Albatross_0040_796375
p108
aV003.Sooty_Albatross/Sooty_Albatross_0067_796376
p109
aV003.Sooty_Albatross/Sooty_Albatross_0066_796382
p110
aV003.Sooty_Albatross/Sooty_Albatross_0036_796387
p111
aV003.Sooty_Albatross/Sooty_Albatross_0079_796389
p112
aV003.Sooty_Albatross/Sooty_Albatross_0006_796390
p113
aV003.Sooty_Albatross/Sooty_Albatross_0019_796391
p114
aV003.Sooty_Albatross/Sooty_Albatross_0002_796395
p115
aV003.Sooty_Albatross/Sooty_Albatross_0022_796398
p116
aV003.Sooty_Albatross/Sooty_Albatross_0023_796401
p117
aV003.Sooty_Albatross/Sooty_Albatross_0013_796402
p118
aV005.Crested_Auklet/Crested_Auklet_0006_1813
p119
aV005.Crested_Auklet/Crested_Auklet_0042_794902
p120
aV005.Crested_Auklet/Crested_Auklet_0061_794904
p121
aV005.Crested_Auklet/Crested_Auklet_0018_1817
p122
aV005.Crested_Auklet/Crested_Auklet_0010_794907
p123
aV005.Crested_Auklet/Crested_Auklet_0041_794910
p124
aV005.Crested_Auklet/Crested_Auklet_0029_1824
p125
aV005.Crested_Auklet/Crested_Auklet_0044_1825
p126
aV005.Crested_Auklet/Crested_Auklet_0013_794914
p127
aV005.Crested_Auklet/Crested_Auklet_0047_794918
p128
aV005.Crested_Auklet/Crested_Auklet_0005_794922
p129
aV005.Crested_Auklet/Crested_Auklet_0019_794925
p130
aV005.Crested_Auklet/Crested_Auklet_0011_794927
p131
aV005.Crested_Auklet/Crested_Auklet_0059_794929
p132
aV005.Crested_Auklet/Crested_Auklet_0032_794931
p133
aV005.Crested_Auklet/Crested_Auklet_0057_794932
p134
aV005.Crested_Auklet/Crested_Auklet_0021_794938
p135
aV005.Crested_Auklet/Crested_Auklet_0045_794940
p136
aV005.Crested_Auklet/Crested_Auklet_0001_794941
p137
aV005.Crested_Auklet/Crested_Auklet_0039_794944
p138
aV005.Crested_Auklet/Crested_Auklet_0074_794949
p139
aV005.Crested_Auklet/Crested_Auklet_0028_794951
p140
aV005.Crested_Auklet/Crested_Auklet_0052_794952
p141
aV005.Crested_Auklet/Crested_Auklet_0012_794960
p142
aV005.Crested_Auklet/Crested_Auklet_0003_794962
p143
aV005.Crested_Auklet/Crested_Auklet_0033_794964
p144
aV005.Crested_Auklet/Crested_Auklet_0053_794966
p145
aV005.Crested_Auklet/Crested_Auklet_0062_794968
p146
aV005.Crested_Auklet/Crested_Auklet_0073_785248
p147
aV005.Crested_Auklet/Crested_Auklet_0067_785249
p148
aV005.Crested_Auklet/Crested_Auklet_0066_785251
p149
aV005.Crested_Auklet/Crested_Auklet_0076_785252
p150
aV005.Crested_Auklet/Crested_Auklet_0068_785253
p151
aV005.Crested_Auklet/Crested_Auklet_0071_785255
p152
aV005.Crested_Auklet/Crested_Auklet_0077_785257
p153
aV005.Crested_Auklet/Crested_Auklet_0069_785258
p154
aV005.Crested_Auklet/Crested_Auklet_0075_785259
p155
aV005.Crested_Auklet/Crested_Auklet_0072_785260
p156
aV005.Crested_Auklet/Crested_Auklet_0070_785261
p157
aV005.Crested_Auklet/Crested_Auklet_0063_794901
p158
aV005.Crested_Auklet/Crested_Auklet_0036_794905
p159
aV005.Crested_Auklet/Crested_Auklet_0030_794937
p160
aV005.Crested_Auklet/Crested_Auklet_0040_794912
p161
aV005.Crested_Auklet/Crested_Auklet_0048_1791
p162
aV007.Parakeet_Auklet/Parakeet_Auklet_0004_795921
p163
aV007.Parakeet_Auklet/Parakeet_Auklet_0017_795924
p164
aV007.Parakeet_Auklet/Parakeet_Auklet_0027_795925
p165
aV007.Parakeet_Auklet/Parakeet_Auklet_0056_795926
p166
aV007.Parakeet_Auklet/Parakeet_Auklet_0012_795927
p167
aV007.Parakeet_Auklet/Parakeet_Auklet_0072_795929
p168
aV007.Parakeet_Auklet/Parakeet_Auklet_0030_795930
p169
aV007.Parakeet_Auklet/Parakeet_Auklet_0007_795932
p170
aV007.Parakeet_Auklet/Parakeet_Auklet_0041_795933
p171
aV007.Parakeet_Auklet/Parakeet_Auklet_0035_795934
p172
aV007.Parakeet_Auklet/Parakeet_Auklet_0038_795935
p173
aV007.Parakeet_Auklet/Parakeet_Auklet_0069_795936
p174
aV007.Parakeet_Auklet/Parakeet_Auklet_0073_795939
p175
aV007.Parakeet_Auklet/Parakeet_Auklet_0058_795942
p176
aV007.Parakeet_Auklet/Parakeet_Auklet_0036_795943
p177
aV007.Parakeet_Auklet/Parakeet_Auklet_0028_795944
p178
aV007.Parakeet_Auklet/Parakeet_Auklet_0020_795947
p179
aV007.Parakeet_Auklet/Parakeet_Auklet_0043_795948
p180
aV007.Parakeet_Auklet/Parakeet_Auklet_0045_795953
p181
aV007.Parakeet_Auklet/Parakeet_Auklet_0064_795954
p182
aV007.Parakeet_Auklet/Parakeet_Auklet_0039_795955
p183
aV007.Parakeet_Auklet/Parakeet_Auklet_0047_795956
p184
aV007.Parakeet_Auklet/Parakeet_Auklet_0050_795957
p185
aV007.Parakeet_Auklet/Parakeet_Auklet_0062_795958
p186
aV007.Parakeet_Auklet/Parakeet_Auklet_0031_795960
p187
aV007.Parakeet_Auklet/Parakeet_Auklet_0042_795961
p188
aV007.Parakeet_Auklet/Parakeet_Auklet_0026_795962
p189
aV007.Parakeet_Auklet/Parakeet_Auklet_0055_795963
p190
aV007.Parakeet_Auklet/Parakeet_Auklet_0067_795964
p191
aV007.Parakeet_Auklet/Parakeet_Auklet_0080_795965
p192
aV007.Parakeet_Auklet/Parakeet_Auklet_0015_795966
p193
aV007.Parakeet_Auklet/Parakeet_Auklet_0065_795969
p194
aV007.Parakeet_Auklet/Parakeet_Auklet_0013_795970
p195
aV007.Parakeet_Auklet/Parakeet_Auklet_0051_795971
p196
aV007.Parakeet_Auklet/Parakeet_Auklet_0001_795972
p197
aV007.Parakeet_Auklet/Parakeet_Auklet_0059_795973
p198
aV007.Parakeet_Auklet/Parakeet_Auklet_0040_795974
p199
aV007.Parakeet_Auklet/Parakeet_Auklet_0025_795975
p200
aV007.Parakeet_Auklet/Parakeet_Auklet_0074_795976
p201
aV007.Parakeet_Auklet/Parakeet_Auklet_0016_795977
p202
aV007.Parakeet_Auklet/Parakeet_Auklet_0048_795980
p203
aV007.Parakeet_Auklet/Parakeet_Auklet_0075_795981
p204
aV007.Parakeet_Auklet/Parakeet_Auklet_0003_795982
p205
aV007.Parakeet_Auklet/Parakeet_Auklet_0032_795986
p206
aV007.Parakeet_Auklet/Parakeet_Auklet_0019_795987
p207
aV007.Parakeet_Auklet/Parakeet_Auklet_0061_795990
p208
aV007.Parakeet_Auklet/Parakeet_Auklet_0008_795992
p209
aV007.Parakeet_Auklet/Parakeet_Auklet_0034_795994
p210
aV007.Parakeet_Auklet/Parakeet_Auklet_0010_795995
p211
aV007.Parakeet_Auklet/Parakeet_Auklet_0070_795998
p212
aV007.Parakeet_Auklet/Parakeet_Auklet_0076_796001
p213
aV007.Parakeet_Auklet/Parakeet_Auklet_0078_2004
p214
aV007.Parakeet_Auklet/Parakeet_Auklet_0024_2045
p215
aV010.Red_winged_Blackbird/Red_Winged_Blackbird_0091_4096
p216
aV010.Red_winged_Blackbird/Red_Winged_Blackbird_0059_4612
p217
aV010.Red_winged_Blackbird/Red_Winged_Blackbird_0054_4625
p218
aV010.Red_winged_Blackbird/Red_Winged_Blackbird_0022_4483
p219
aV010.Red_winged_Blackbird/Red_Winged_Blackbird_0017_4116
p220
aV010.Red_winged_Blackbird/Red_Winged_Blackbird_0079_4527
p221
aV010.Red_winged_Blackbird/Red_Winged_Blackbird_0075_4953
p222
aV010.Red_winged_Blackbird/Red_Winged_Blackbird_0005_5636
p223
aV010.Red_winged_Blackbird/Red_Winged_Blackbird_0058_4141
p224
aV010.Red_winged_Blackbird/Red_Winged_Blackbird_0074_4146
p225
aV010.Red_winged_Blackbird/Red_Winged_Blackbird_0042_3635
p226
aV010.Red_winged_Blackbird/Red_Winged_Blackbird_0049_5598
p227
aV010.Red_winged_Blackbird/Red_Winged_Blackbird_0023_5257
p228
aV010.Red_winged_Blackbird/Red_Winged_Blackbird_0093_5948
p229
aV010.Red_winged_Blackbird/Red_Winged_Blackbird_0064_4936
p230
aV010.Red_winged_Blackbird/Red_Winged_Blackbird_0104_3918
p231
aV010.Red_winged_Blackbird/Red_Winged_Blackbird_0060_4688
p232
aV010.Red_winged_Blackbird/Red_Winged_Blackbird_0024_4180
p233
aV010.Red_winged_Blackbird/Red_Winged_Blackbird_0061_4196
p234
aV010.Red_winged_Blackbird/Red_Winged_Blackbird_0089_4188
p235
aV010.Red_winged_Blackbird/Red_Winged_Blackbird_0101_6244
p236
aV010.Red_winged_Blackbird/Red_Winged_Blackbird_0028_4709
p237
aV010.Red_winged_Blackbird/Red_Winged_Blackbird_0109_4454
p238
aV010.Red_winged_Blackbird/Red_Winged_Blackbird_0001_3695
p239
aV010.Red_winged_Blackbird/Red_Winged_Blackbird_0053_4072
p240
aV010.Red_winged_Blackbird/Red_Winged_Blackbird_0006_6005
p241
aV010.Red_winged_Blackbird/Red_Winged_Blackbird_0007_3706
p242
aV010.Red_winged_Blackbird/Red_Winged_Blackbird_0012_6015
p243
aV010.Red_winged_Blackbird/Red_Winged_Blackbird_0013_5762
p244
aV010.Red_winged_Blackbird/Red_Winged_Blackbird_0062_4233
p245
aV010.Red_winged_Blackbird/Red_Winged_Blackbird_0099_3985
p246
aV010.Red_winged_Blackbird/Red_Winged_Blackbird_0046_4242
p247
aV010.Red_winged_Blackbird/Red_Winged_Blackbird_0071_3988
p248
aV010.Red_winged_Blackbird/Red_Winged_Blackbird_0027_4123
p249
aV010.Red_winged_Blackbird/Red_Winged_Blackbird_0032_4004
p250
aV010.Red_winged_Blackbird/Red_Winged_Blackbird_0088_4007
p251
aV010.Red_winged_Blackbird/Red_Winged_Blackbird_0040_4522
p252
aV010.Red_winged_Blackbird/Red_Winged_Blackbird_0010_6386
p253
aV010.Red_winged_Blackbird/Red_Winged_Blackbird_0045_4526
p254
aV010.Red_winged_Blackbird/Red_Winged_Blackbird_0014_3761
p255
aV010.Red_winged_Blackbird/Red_Winged_Blackbird_0021_3767
p256
aV010.Red_winged_Blackbird/Red_Winged_Blackbird_0065_4026
p257
aV010.Red_winged_Blackbird/Red_Winged_Blackbird_0039_4285
p258
aV010.Red_winged_Blackbird/Red_Winged_Blackbird_0081_6081
p259
aV010.Red_winged_Blackbird/Red_Winged_Blackbird_0029_4804
p260
aV010.Red_winged_Blackbird/Red_Winged_Blackbird_0052_5575
p261
aV010.Red_winged_Blackbird/Red_Winged_Blackbird_0096_5019
p262
aV010.Red_winged_Blackbird/Red_Winged_Blackbird_0066_5070
p263
aV010.Red_winged_Blackbird/Red_Winged_Blackbird_0009_5841
p264
aV010.Red_winged_Blackbird/Red_Winged_Blackbird_0020_4050
p265
aV010.Red_winged_Blackbird/Red_Winged_Blackbird_0011_5845
p266
aV010.Red_winged_Blackbird/Red_Winged_Blackbird_0085_5846
p267
aV010.Red_winged_Blackbird/Red_Winged_Blackbird_0047_3802
p268
aV010.Red_winged_Blackbird/Red_Winged_Blackbird_0025_5342
p269
aV010.Red_winged_Blackbird/Red_Winged_Blackbird_0094_5856
p270
aV010.Red_winged_Blackbird/Red_Winged_Blackbird_0105_4842
p271
aV010.Red_winged_Blackbird/Red_Winged_Blackbird_0072_4338
p272
aV010.Red_winged_Blackbird/Red_Winged_Blackbird_0044_5621
p273
aV010.Red_winged_Blackbird/Red_Winged_Blackbird_0055_4345
p274
aV010.Red_winged_Blackbird/Red_Winged_Blackbird_0078_5372
p275
a.
